target datalayout = "e-m:e-p270:32:32-p271:32:32-p272:64:64-i64:64-i128:128-f80:128-n8:16:32:64-S128"
target triple = "x86_64-pc-linux-gnu"

%struct.slurmdb_federation_rec_t = type { ptr, i32, ptr }

@fed_mgr_fed_rec = dso_local global ptr null, align 8

; Function Attrs: nounwind uwtable
define dso_local ptr @fed_mgr_get_cluster_by_id(i32 noundef %0) #0 {
  %2 = alloca i32, align 4
  %3 = alloca i32, align 4
  store i32 %0, ptr %2, align 4
  call void @llvm.lifetime.start.p0(i64 4, ptr %3) #9
  %4 = load i32, ptr %2, align 4
  store i32 %4, ptr %3, align 4
  %5 = load ptr, ptr @fed_mgr_fed_rec, align 8
  %6 = getelementptr inbounds nuw %struct.slurmdb_federation_rec_t, ptr %5, i32 0, i32 2
  %7 = load ptr, ptr %6, align 8
  %8 = call ptr @list_find_first(ptr noundef %7, ptr noundef @_find_sibling_by_id, ptr noundef %3)
  call void @llvm.lifetime.end.p0(i64 4, ptr %3) #9
  ret ptr %8
}