; Function Attrs: nounwind uwtable
define dso_local ptr @fed_mgr_get_cluster_by_id(i32 noundef %0) local_unnamed_addr #0 {
  %2 = alloca i32, align 4
  call void @llvm.lifetime.start.p0(i64 4, ptr nonnull %2) #16
  store i32 %0, ptr %2, align 4
  %3 = load ptr, ptr @fed_mgr_fed_rec, align 8
  %4 = getelementptr inbounds nuw i8, ptr %3, i64 16
  %5 = load ptr, ptr %4, align 8
  %6 = call ptr @list_find_first(ptr noundef %5, ptr noundef nonnull @_find_sibling_by_id, ptr noundef nonnull %2) #16
  call void @llvm.lifetime.end.p0(i64 4, ptr nonnull %2) #16
  ret ptr %6
}